target datalayout = "e-m:e-p270:32:32-p271:32:32-p272:64:64-i64:64-i128:128-f80:128-n8:16:32:64-S128"
target triple = "x86_64-pc-linux-gnu"

%class.b3Generic6DofConstraint = type { %class.b3TypedConstraint, %class.b3Transform, %class.b3Transform, %class.b3TranslationalLimitMotor, [3 x %class.b3RotationalLimitMotor], %class.b3Transform, %class.b3Transform, %class.b3Vector3, [3 x %class.b3Vector3], %class.b3Vector3, float, float, float, i8, %class.b3Vector3, i8, i8, i32, [8 x i8] }
%class.b3TypedConstraint = type { ptr, %struct.b3TypedObject, i32, %union.anon, float, i8, i8, i32, i32, i32, float, float, ptr }
%struct.b3TypedObject = type { i32 }
%union.anon = type { ptr }
%class.b3TranslationalLimitMotor = type { %class.b3Vector3, %class.b3Vector3, %class.b3Vector3, %class.b3Vector3, %class.b3Vector3, %class.b3Vector3, %class.b3Vector3, %class.b3Vector3, %class.b3Vector3, %class.b3Vector3, float, float, float, [3 x i8], [3 x i32], [4 x i8] }
%class.b3RotationalLimitMotor = type { float, float, float, float, float, float, float, float, float, float, float, i8, float, float, i32, float }
%class.b3Transform = type { %class.b3Matrix3x3, %class.b3Vector3 }
%class.b3Matrix3x3 = type { [3 x %class.b3Vector3] }
%class.b3Vector3 = type { %union.anon.0 }
%union.anon.0 = type { [4 x float] }
%"struct.b3TypedConstraint::b3ConstraintInfo2" = type { float, float, ptr, ptr, ptr, ptr, i32, ptr, ptr, ptr, ptr, ptr, i32, float }

; Function Attrs: mustprogress nounwind uwtable
define dso_local { <2 x float>, <2 x float> } @_ZNK23b3Generic6DofConstraint7getAxisEi(ptr noundef nonnull align 16 dereferenceable(824) %0, i32 noundef %1) #3 align 2 {
  %3 = alloca %class.b3Vector3, align 16
  %4 = alloca ptr, align 8
  %5 = alloca i32, align 4
  store ptr %0, ptr %4, align 8, !tbaa !4
  store i32 %1, ptr %5, align 4, !tbaa !9
  %6 = load ptr, ptr %4, align 8
  %7 = getelementptr inbounds nuw %class.b3Generic6DofConstraint, ptr %6, i32 0, i32 8
  %8 = load i32, ptr %5, align 4, !tbaa !9
  %9 = sext i32 %8 to i64
  %10 = getelementptr inbounds [3 x %class.b3Vector3], ptr %7, i64 0, i64 %9
  call void @llvm.memcpy.p0.p0.i64(ptr align 16 %3, ptr align 16 %10, i64 16, i1 false), !tbaa.struct !33
  %11 = getelementptr inbounds nuw %class.b3Vector3, ptr %3, i32 0, i32 0
  %12 = getelementptr inbounds nuw %union.anon.0, ptr %11, i32 0, i32 0
  %13 = load { <2 x float>, <2 x float> }, ptr %12, align 16
  ret { <2 x float>, <2 x float> } %13
}

; Function Attrs: mustprogress nounwind uwtable
define linkonce_odr dso_local noundef zeroext i1 @_ZN22b3RotationalLimitMotor16needApplyTorquesEv(ptr noundef nonnull align 4 dereferenceable(64) %0) #3 comdat align 2 {
  %2 = alloca i1, align 1
  %3 = alloca ptr, align 8
  store ptr %0, ptr %3, align 8, !tbaa !43
  %4 = load ptr, ptr %3, align 8
  %5 = getelementptr inbounds nuw %class.b3RotationalLimitMotor, ptr %4, i32 0, i32 14
  %6 = load i32, ptr %5, align 4, !tbaa !58
  %7 = icmp eq i32 %6, 0
  br i1 %7, label %8, label %15

8:                                                ; preds = %1
  %9 = getelementptr inbounds nuw %class.b3RotationalLimitMotor, ptr %4, i32 0, i32 11
  %10 = load i8, ptr %9, align 4, !tbaa !60, !range !19, !noundef !20
  %11 = trunc i8 %10 to i1
  %12 = zext i1 %11 to i32
  %13 = icmp eq i32 %12, 0
  br i1 %13, label %14, label %15

14:                                               ; preds = %8
  store i1 false, ptr %2, align 1
  br label %16

15:                                               ; preds = %8, %1
  store i1 true, ptr %2, align 1
  br label %16

16:                                               ; preds = %15, %14
  %17 = load i1, ptr %2, align 1
  ret i1 %17
}

; Function Attrs: mustprogress nounwind uwtable
define linkonce_odr dso_local noundef ptr @_ZN23b3Generic6DofConstraint23getRotationalLimitMotorEi(ptr noundef nonnull align 16 dereferenceable(824) %0, i32 noundef %1) #3 comdat align 2 {
  %3 = alloca ptr, align 8
  %4 = alloca i32, align 4
  store ptr %0, ptr %3, align 8, !tbaa !4
  store i32 %1, ptr %4, align 4, !tbaa !9
  %5 = load ptr, ptr %3, align 8
  %6 = getelementptr inbounds nuw %class.b3Generic6DofConstraint, ptr %5, i32 0, i32 4
  %7 = load i32, ptr %4, align 4, !tbaa !9
  %8 = sext i32 %7 to i64
  %9 = getelementptr inbounds [3 x %class.b3RotationalLimitMotor], ptr %6, i64 0, i64 %8
  ret ptr %9
}

; Function Attrs: mustprogress uwtable
define dso_local noundef i32 @_ZN23b3Generic6DofConstraint16setAngularLimitsEPN17b3TypedConstraint17b3ConstraintInfo2EiRK11b3TransformS5_RK9b3Vector3S8_S8_S8_(ptr noundef nonnull align 16 dereferenceable(824) %0, ptr noundef %1, i32 noundef %2, ptr noundef nonnull align 16 dereferenceable(64) %3, ptr noundef nonnull align 16 dereferenceable(64) %4, ptr noundef nonnull align 16 dereferenceable(16) %5, ptr noundef nonnull align 16 dereferenceable(16) %6, ptr noundef nonnull align 16 dereferenceable(16) %7, ptr noundef nonnull align 16 dereferenceable(16) %8) #6 align 2 {
  %10 = alloca ptr, align 8
  %11 = alloca ptr, align 8
  %12 = alloca i32, align 4
  %13 = alloca ptr, align 8
  %14 = alloca ptr, align 8
  %15 = alloca ptr, align 8
  %16 = alloca ptr, align 8
  %17 = alloca ptr, align 8
  %18 = alloca ptr, align 8
  %19 = alloca ptr, align 8
  %20 = alloca i32, align 4
  %21 = alloca i32, align 4
  %22 = alloca %class.b3Vector3, align 16
  %23 = alloca i32, align 4
  store ptr %0, ptr %10, align 8, !tbaa !4
  store ptr %1, ptr %11, align 8, !tbaa !83
  store i32 %2, ptr %12, align 4, !tbaa !9
  store ptr %3, ptr %13, align 8, !tbaa !11
  store ptr %4, ptr %14, align 8, !tbaa !11
  store ptr %5, ptr %15, align 8, !tbaa !65
  store ptr %6, ptr %16, align 8, !tbaa !65
  store ptr %7, ptr %17, align 8, !tbaa !65
  store ptr %8, ptr %18, align 8, !tbaa !65
  %24 = load ptr, ptr %10, align 8
  call void @llvm.lifetime.start.p0(i64 8, ptr %19) #13
  store ptr %24, ptr %19, align 8, !tbaa !4
  call void @llvm.lifetime.start.p0(i64 4, ptr %20) #13
  %25 = load i32, ptr %12, align 4, !tbaa !9
  store i32 %25, ptr %20, align 4, !tbaa !9
  call void @llvm.lifetime.start.p0(i64 4, ptr %21) #13
  store i32 0, ptr %21, align 4, !tbaa !9
  br label %26

26:                                               ; preds = %109, %9
  %27 = load i32, ptr %21, align 4, !tbaa !9
  %28 = icmp slt i32 %27, 3
  br i1 %28, label %30, label %29

29:                                               ; preds = %26
  call void @llvm.lifetime.end.p0(i64 4, ptr %21) #13
  br label %112

30:                                               ; preds = %26
  %31 = load ptr, ptr %19, align 8, !tbaa !4
  %32 = load i32, ptr %21, align 4, !tbaa !9
  %33 = call noundef ptr @_ZN23b3Generic6DofConstraint23getRotationalLimitMotorEi(ptr noundef nonnull align 16 dereferenceable(824) %31, i32 noundef %32)
  %34 = call noundef zeroext i1 @_ZN22b3RotationalLimitMotor16needApplyTorquesEv(ptr noundef nonnull align 4 dereferenceable(64) %33)
  br i1 %34, label %35, label %108

35:                                               ; preds = %30
  call void @llvm.lifetime.start.p0(i64 16, ptr %22) #13
  %36 = load ptr, ptr %19, align 8, !tbaa !4
  %37 = load i32, ptr %21, align 4, !tbaa !9
  %38 = call { <2 x float>, <2 x float> } @_ZNK23b3Generic6DofConstraint7getAxisEi(ptr noundef nonnull align 16 dereferenceable(824) %36, i32 noundef %37)
  %39 = getelementptr inbounds nuw %class.b3Vector3, ptr %22, i32 0, i32 0
  %40 = getelementptr inbounds nuw %union.anon.0, ptr %39, i32 0, i32 0
  %41 = getelementptr inbounds nuw { <2 x float>, <2 x float> }, ptr %40, i32 0, i32 0
  %42 = extractvalue { <2 x float>, <2 x float> } %38, 0
  store <2 x float> %42, ptr %41, align 16
  %43 = getelementptr inbounds nuw { <2 x float>, <2 x float> }, ptr %40, i32 0, i32 1
  %44 = extractvalue { <2 x float>, <2 x float> } %38, 1
  store <2 x float> %44, ptr %43, align 8
  call void @llvm.lifetime.start.p0(i64 4, ptr %23) #13
  %45 = getelementptr inbounds nuw %class.b3Generic6DofConstraint, ptr %24, i32 0, i32 17
  %46 = load i32, ptr %45, align 4, !tbaa !32
  %47 = load i32, ptr %21, align 4, !tbaa !9
  %48 = add nsw i32 %47, 3
  %49 = mul nsw i32 %48, 3
  %50 = ashr i32 %46, %49
  store i32 %50, ptr %23, align 4, !tbaa !9
  %51 = load i32, ptr %23, align 4, !tbaa !9
  %52 = and i32 %51, 1
  %53 = icmp ne i32 %52, 0
  br i1 %53, label %65, label %54

54:                                               ; preds = %35
  %55 = load ptr, ptr %11, align 8, !tbaa !83
  %56 = getelementptr inbounds nuw %"struct.b3TypedConstraint::b3ConstraintInfo2", ptr %55, i32 0, i32 8
  %57 = load ptr, ptr %56, align 8, !tbaa !85
  %58 = getelementptr inbounds float, ptr %57, i64 0
  %59 = load float, ptr %58, align 4, !tbaa !37
  %60 = getelementptr inbounds nuw %class.b3Generic6DofConstraint, ptr %24, i32 0, i32 4
  %61 = load i32, ptr %21, align 4, !tbaa !9
  %62 = sext i32 %61 to i64
  %63 = getelementptr inbounds [3 x %class.b3RotationalLimitMotor], ptr %60, i64 0, i64 %62
  %64 = getelementptr inbounds nuw %class.b3RotationalLimitMotor, ptr %63, i32 0, i32 7
  store float %59, ptr %64, align 4, !tbaa !52
  br label %65

65:                                               ; preds = %54, %35
  %66 = load i32, ptr %23, align 4, !tbaa !9
  %67 = and i32 %66, 2
  %68 = icmp ne i32 %67, 0
  br i1 %68, label %80, label %69

69:                                               ; preds = %65
  %70 = load ptr, ptr %11, align 8, !tbaa !83
  %71 = getelementptr inbounds nuw %"struct.b3TypedConstraint::b3ConstraintInfo2", ptr %70, i32 0, i32 8
  %72 = load ptr, ptr %71, align 8, !tbaa !85
  %73 = getelementptr inbounds float, ptr %72, i64 0
  %74 = load float, ptr %73, align 4, !tbaa !37
  %75 = getelementptr inbounds nuw %class.b3Generic6DofConstraint, ptr %24, i32 0, i32 4
  %76 = load i32, ptr %21, align 4, !tbaa !9
  %77 = sext i32 %76 to i64
  %78 = getelementptr inbounds [3 x %class.b3RotationalLimitMotor], ptr %75, i64 0, i64 %77
  %79 = getelementptr inbounds nuw %class.b3RotationalLimitMotor, ptr %78, i32 0, i32 9
  store float %74, ptr %79, align 4, !tbaa !54
  br label %80

80:                                               ; preds = %69, %65
  %81 = load i32, ptr %23, align 4, !tbaa !9
  %82 = and i32 %81, 4
  %83 = icmp ne i32 %82, 0
  br i1 %83, label %93, label %84

84:                                               ; preds = %80
  %85 = load ptr, ptr %11, align 8, !tbaa !83
  %86 = getelementptr inbounds nuw %"struct.b3TypedConstraint::b3ConstraintInfo2", ptr %85, i32 0, i32 1
  %87 = load float, ptr %86, align 4, !tbaa !89
  %88 = getelementptr inbounds nuw %class.b3Generic6DofConstraint, ptr %24, i32 0, i32 4
  %89 = load i32, ptr %21, align 4, !tbaa !9
  %90 = sext i32 %89 to i64
  %91 = getelementptr inbounds [3 x %class.b3RotationalLimitMotor], ptr %88, i64 0, i64 %90
  %92 = getelementptr inbounds nuw %class.b3RotationalLimitMotor, ptr %91, i32 0, i32 8
  store float %87, ptr %92, align 16, !tbaa !53
  br label %93

93:                                               ; preds = %84, %80
  %94 = load ptr, ptr %19, align 8, !tbaa !4
  %95 = load i32, ptr %21, align 4, !tbaa !9
  %96 = call noundef ptr @_ZN23b3Generic6DofConstraint23getRotationalLimitMotorEi(ptr noundef nonnull align 16 dereferenceable(824) %94, i32 noundef %95)
  %97 = load ptr, ptr %13, align 8, !tbaa !11
  %98 = load ptr, ptr %14, align 8, !tbaa !11
  %99 = load ptr, ptr %15, align 8, !tbaa !65
  %100 = load ptr, ptr %16, align 8, !tbaa !65
  %101 = load ptr, ptr %17, align 8, !tbaa !65
  %102 = load ptr, ptr %18, align 8, !tbaa !65
  %103 = load ptr, ptr %11, align 8, !tbaa !83
  %104 = load i32, ptr %20, align 4, !tbaa !9
  %105 = call noundef i32 @_ZN23b3Generic6DofConstraint21get_limit_motor_info2EP22b3RotationalLimitMotorRK11b3TransformS4_RK9b3Vector3S7_S7_S7_PN17b3TypedConstraint17b3ConstraintInfo2EiRS5_ii(ptr noundef nonnull align 16 dereferenceable(824) %24, ptr noundef %96, ptr noundef nonnull align 16 dereferenceable(64) %97, ptr noundef nonnull align 16 dereferenceable(64) %98, ptr noundef nonnull align 16 dereferenceable(16) %99, ptr noundef nonnull align 16 dereferenceable(16) %100, ptr noundef nonnull align 16 dereferenceable(16) %101, ptr noundef nonnull align 16 dereferenceable(16) %102, ptr noundef %103, i32 noundef %104, ptr noundef nonnull align 16 dereferenceable(16) %22, i32 noundef 1, i32 noundef 0)
  %106 = load i32, ptr %20, align 4, !tbaa !9
  %107 = add nsw i32 %106, %105
  store i32 %107, ptr %20, align 4, !tbaa !9
  call void @llvm.lifetime.end.p0(i64 4, ptr %23) #13
  call void @llvm.lifetime.end.p0(i64 16, ptr %22) #13
  br label %108

108:                                              ; preds = %93, %30
  br label %109

109:                                              ; preds = %108
  %110 = load i32, ptr %21, align 4, !tbaa !9
  %111 = add nsw i32 %110, 1
  store i32 %111, ptr %21, align 4, !tbaa !9
  br label %26, !llvm.loop !90

112:                                              ; preds = %29
  %113 = load i32, ptr %20, align 4, !tbaa !9
  call void @llvm.lifetime.end.p0(i64 4, ptr %20) #13
  call void @llvm.lifetime.end.p0(i64 8, ptr %19) #13
  ret i32 %113
}