; Function Attrs: mustprogress uwtable
define dso_local noundef i32 @_ZN23b3Generic6DofConstraint16setAngularLimitsEPN17b3TypedConstraint17b3ConstraintInfo2EiRK11b3TransformS5_RK9b3Vector3S8_S8_S8_(ptr noundef nonnull align 16 dereferenceable(824) %0, ptr noundef readonly captures(none) %1, i32 noundef %2, ptr noundef nonnull readonly align 16 captures(none) dereferenceable(64) %3, ptr noundef nonnull readonly align 16 captures(none) dereferenceable(64) %4, ptr noundef nonnull readonly align 16 captures(none) dereferenceable(16) %5, ptr noundef nonnull readonly align 16 captures(none) dereferenceable(16) %6, ptr noundef nonnull readonly align 16 captures(none) dereferenceable(16) %7, ptr noundef nonnull readonly align 16 captures(none) dereferenceable(16) %8) local_unnamed_addr #13 align 2 {
  %10 = alloca %class.b3Vector3, align 16
  %11 = getelementptr inbounds nuw i8, ptr %0, i64 384
  %12 = getelementptr inbounds nuw i8, ptr %0, i64 720
  %13 = getelementptr inbounds nuw i8, ptr %10, i64 8
  %14 = getelementptr inbounds nuw i8, ptr %0, i64 820
  %15 = getelementptr inbounds nuw i8, ptr %1, i64 56
  %16 = getelementptr inbounds nuw i8, ptr %1, i64 4
  br label %18

17:                                               ; preds = %58
  ret i32 %.1

18:                                               ; preds = %9, %58
  %indvars.iv = phi i64 [ 0, %9 ], [ %indvars.iv.next, %58 ]
  %.036 = phi i32 [ %2, %9 ], [ %.1, %58 ]
  %19 = getelementptr inbounds nuw [3 x %class.b3RotationalLimitMotor], ptr %11, i64 0, i64 %indvars.iv
  %20 = getelementptr inbounds nuw i8, ptr %19, i64 56
  %21 = load i32, ptr %20, align 8, !tbaa !33
  %22 = icmp ne i32 %21, 0
  %23 = getelementptr inbounds nuw i8, ptr %19, i64 44
  %24 = load i8, ptr %23, align 4, !range !73
  %25 = icmp ne i8 %24, 0
  %or.cond.not.i = select i1 %22, i1 true, i1 %25
  br i1 %or.cond.not.i, label %26, label %58

26:                                               ; preds = %18
  call void @llvm.lifetime.start.p0(i64 16, ptr nonnull %10) #25
  %27 = getelementptr inbounds nuw [3 x %class.b3Vector3], ptr %12, i64 0, i64 %indvars.iv
  %.sroa.0.0.copyload.i = load <2 x float>, ptr %27, align 16
  %.sroa.2.0..sroa_idx.i = getelementptr inbounds nuw i8, ptr %27, i64 8
  %.sroa.2.0.copyload.i = load <2 x float>, ptr %.sroa.2.0..sroa_idx.i, align 8, !tbaa !8
  store <2 x float> %.sroa.0.0.copyload.i, ptr %10, align 16
  store <2 x float> %.sroa.2.0.copyload.i, ptr %13, align 8
  %28 = load i32, ptr %14, align 4, !tbaa !45
  %29 = trunc i64 %indvars.iv to i32
  %30 = mul i32 %29, 3
  %31 = add i32 %30, 9
  %32 = ashr i32 %28, %31
  %33 = and i32 %32, 1
  %.not = icmp eq i32 %33, 0
  br i1 %.not, label %34, label %40

34:                                               ; preds = %26
  %35 = load ptr, ptr %15, align 8, !tbaa !105
  %36 = load float, ptr %35, align 4, !tbaa !16
  %37 = shl nuw nsw i64 %indvars.iv, 6
  %38 = or disjoint i64 %37, 28
  %39 = getelementptr inbounds nuw i8, ptr %11, i64 %38
  store float %36, ptr %39, align 4, !tbaa !27
  br label %40

40:                                               ; preds = %34, %26
  %41 = and i32 %32, 2
  %.not30 = icmp eq i32 %41, 0
  br i1 %.not30, label %42, label %48

42:                                               ; preds = %40
  %43 = load ptr, ptr %15, align 8, !tbaa !105
  %44 = load float, ptr %43, align 4, !tbaa !16
  %45 = shl nuw nsw i64 %indvars.iv, 6
  %46 = or disjoint i64 %45, 36
  %47 = getelementptr inbounds nuw i8, ptr %11, i64 %46
  store float %44, ptr %47, align 4, !tbaa !29
  br label %48

48:                                               ; preds = %42, %40
  %49 = and i32 %32, 4
  %.not32 = icmp eq i32 %49, 0
  br i1 %.not32, label %50, label %55

50:                                               ; preds = %48
  %51 = load float, ptr %16, align 4, !tbaa !109
  %52 = shl nuw nsw i64 %indvars.iv, 6
  %53 = or disjoint i64 %52, 32
  %54 = getelementptr inbounds nuw i8, ptr %11, i64 %53
  store float %51, ptr %54, align 16, !tbaa !28
  br label %55

55:                                               ; preds = %50, %48
  %56 = call noundef i32 @_ZN23b3Generic6DofConstraint21get_limit_motor_info2EP22b3RotationalLimitMotorRK11b3TransformS4_RK9b3Vector3S7_S7_S7_PN17b3TypedConstraint17b3ConstraintInfo2EiRS5_ii(ptr noundef nonnull align 16 dereferenceable(824) %0, ptr noundef nonnull %19, ptr noundef nonnull align 16 dereferenceable(64) %3, ptr noundef nonnull align 16 dereferenceable(64) %4, ptr noundef nonnull align 16 dereferenceable(16) %5, ptr noundef nonnull align 16 dereferenceable(16) %6, ptr noundef nonnull align 16 dereferenceable(16) %7, ptr noundef nonnull align 16 dereferenceable(16) %8, ptr noundef %1, i32 noundef %.036, ptr noundef nonnull align 16 dereferenceable(16) %10, i32 noundef 1, i32 noundef 0)
  %57 = add nsw i32 %56, %.036
  call void @llvm.lifetime.end.p0(i64 16, ptr nonnull %10) #25
  br label %58

58:                                               ; preds = %18, %55
  %.1 = phi i32 [ %57, %55 ], [ %.036, %18 ]
  %indvars.iv.next = add nuw nsw i64 %indvars.iv, 1
  %exitcond.not = icmp eq i64 %indvars.iv.next, 3
  br i1 %exitcond.not, label %17, label %18, !llvm.loop !110
}